target datalayout = "e-m:e-p270:32:32-p271:32:32-p272:64:64-i64:64-i128:128-f80:128-n8:16:32:64-S128"
target triple = "x86_64-pc-linux-gnu"

; Function Attrs: nounwind uwtable
define i32 @wc_Sha256Update(ptr noundef %0, ptr noundef %1, i32 noundef %2) #0 {
  %4 = alloca i32, align 4
  %5 = alloca ptr, align 8
  %6 = alloca ptr, align 8
  %7 = alloca i32, align 4
  store ptr %0, ptr %5, align 8, !tbaa !3
  store ptr %1, ptr %6, align 8, !tbaa !16
  store i32 %2, ptr %7, align 4, !tbaa !9
  %8 = load ptr, ptr %5, align 8, !tbaa !3
  %9 = icmp eq ptr %8, null
  br i1 %9, label %10, label %11

10:                                               ; preds = %3
  store i32 -173, ptr %4, align 4
  br label %27

11:                                               ; preds = %3
  %12 = load ptr, ptr %6, align 8, !tbaa !16
  %13 = icmp eq ptr %12, null
  br i1 %13, label %14, label %18

14:                                               ; preds = %11
  %15 = load i32, ptr %7, align 4, !tbaa !9
  %16 = icmp eq i32 %15, 0
  br i1 %16, label %17, label %18

17:                                               ; preds = %14
  store i32 0, ptr %4, align 4
  br label %27

18:                                               ; preds = %14, %11
  %19 = load ptr, ptr %6, align 8, !tbaa !16
  %20 = icmp eq ptr %19, null
  br i1 %20, label %21, label %22

21:                                               ; preds = %18
  store i32 -173, ptr %4, align 4
  br label %27

22:                                               ; preds = %18
  %23 = load ptr, ptr %5, align 8, !tbaa !3
  %24 = load ptr, ptr %6, align 8, !tbaa !16
  %25 = load i32, ptr %7, align 4, !tbaa !9
  %26 = call i32 @Sha256Update(ptr noundef %23, ptr noundef %24, i32 noundef %25)
  store i32 %26, ptr %4, align 4
  br label %27

27:                                               ; preds = %22, %21, %17, %10
  %28 = load i32, ptr %4, align 4
  ret i32 %28
}