; Function Attrs: nofree norecurse nosync nounwind memory(argmem: readwrite) uwtable
define range(i32 -173, 1) i32 @wc_Sha256Update(ptr noundef %0, ptr noundef readonly captures(address_is_null) %1, i32 noundef %2) local_unnamed_addr #2 {
  %4 = icmp eq ptr %0, null
  br i1 %4, label %10, label %5

5:                                                ; preds = %3
  %6 = icmp eq ptr %1, null
  %7 = icmp eq i32 %2, 0
  %or.cond = and i1 %6, %7
  %.mux = select i1 %or.cond, i32 0, i32 -173
  br i1 %6, label %10, label %8

8:                                                ; preds = %5
  %9 = tail call fastcc i32 @Sha256Update(ptr noundef %0, ptr noundef %1, i32 noundef %2)
  br label %10

10:                                               ; preds = %5, %3, %8
  %.0 = phi i32 [ %9, %8 ], [ -173, %3 ], [ %.mux, %5 ]
  ret i32 %.0
}